(dp0
(S'128x32'
p1
F0.001
F0.0
F1.0
I4
tp2
cnumpy.core.multiarray
scalar
p3
(cnumpy
dtype
p4
(S'f4'
p5
I0
I1
tp6
Rp7
(I3
S'<'
p8
NNNI-1
I-1
I0
tp9
bS'\xda6\xf2@'
p10
tp11
Rp12
s(S'128x32'
p13
F0.001
F0.0
F1.0
I3
tp14
g3
(g7
S'5N\xf3@'
p15
tp16
Rp17
s(S'128x32'
p18
F0.001
F0.0
F1.0
I2
tp19
g3
(g7
S'lr\xf3@'
p20
tp21
Rp22
s(S'128x32'
p23
F0.001
F0.0
F1.0
I1
tp24
g3
(g7
S'\n\xd3\xef@'
p25
tp26
Rp27
s(S'128x32'
p28
F0.001
F0.0
F1.0
I0
tp29
g3
(g7
S'\x04!\x00A'
p30
tp31
Rp32
s.